target datalayout = "e-m:e-p270:32:32-p271:32:32-p272:64:64-i64:64-i128:128-f80:128-n8:16:32:64-S128"
target triple = "x86_64-unknown-linux-gnu"

%"class.std::set.0" = type { %"class.std::_Rb_tree.1" }
%"class.std::_Rb_tree.1" = type { %"struct.std::_Rb_tree<QuantLib::Observer *, QuantLib::Observer *, std::_Identity<QuantLib::Observer *>, std::less<QuantLib::Observer *>>::_Rb_tree_impl" }
%"struct.std::_Rb_tree<QuantLib::Observer *, QuantLib::Observer *, std::_Identity<QuantLib::Observer *>, std::less<QuantLib::Observer *>>::_Rb_tree_impl" = type { [8 x i8], %"struct.std::_Rb_tree_header" }
%"struct.std::_Rb_tree_header" = type { %"struct.std::_Rb_tree_node_base", i64 }
%"struct.std::_Rb_tree_node_base" = type { i32, ptr, ptr, ptr }
%"class.QuantLib::Date" = type { i64 }
%"class.boost::detail::shared_count" = type { ptr }
%"class.std::set" = type { %"class.std::_Rb_tree" }
%"class.std::_Rb_tree" = type { %"struct.std::_Rb_tree<boost::shared_ptr<QuantLib::Observable>, boost::shared_ptr<QuantLib::Observable>, std::_Identity<boost::shared_ptr<QuantLib::Observable>>, std::less<boost::shared_ptr<QuantLib::Observable>>>::_Rb_tree_impl" }
%"struct.std::_Rb_tree<boost::shared_ptr<QuantLib::Observable>, boost::shared_ptr<QuantLib::Observable>, std::_Identity<boost::shared_ptr<QuantLib::Observable>>, std::less<boost::shared_ptr<QuantLib::Observable>>>::_Rb_tree_impl" = type { [8 x i8], %"struct.std::_Rb_tree_header" }
%"class.QuantLib::Observable" = type { ptr, %"class.std::set.0" }
%"class.QuantLib::Observer" = type { ptr, %"class.std::set" }
%"class.QuantLib::Forward" = type { %"class.QuantLib::Instrument.base", double, double, %"class.QuantLib::DayCounter", %"class.QuantLib::Calendar", i32, i32, %"class.boost::shared_ptr.12", %"class.QuantLib::Date", %"class.QuantLib::Date", %"class.QuantLib::Handle", %"class.QuantLib::Handle", %"class.QuantLib::Observable", %"class.QuantLib::Observer" }
%"class.QuantLib::Instrument.base" = type { %"class.QuantLib::LazyObject.base", double, double, %"class.QuantLib::Date", %"class.std::map", %"class.boost::shared_ptr.19" }
%"class.QuantLib::LazyObject.base" = type <{ ptr, i8, i8, i8, i8 }>
%"class.std::map" = type { %"class.std::_Rb_tree.14" }
%"class.std::_Rb_tree.14" = type { %"struct.std::_Rb_tree<std::__cxx11::basic_string<char>, std::pair<const std::__cxx11::basic_string<char>, boost::any>, std::_Select1st<std::pair<const std::__cxx11::basic_string<char>, boost::any>>, std::less<std::__cxx11::basic_string<char>>>::_Rb_tree_impl" }
%"struct.std::_Rb_tree<std::__cxx11::basic_string<char>, std::pair<const std::__cxx11::basic_string<char>, boost::any>, std::_Select1st<std::pair<const std::__cxx11::basic_string<char>, boost::any>>, std::less<std::__cxx11::basic_string<char>>>::_Rb_tree_impl" = type { [8 x i8], %"struct.std::_Rb_tree_header" }
%"class.boost::shared_ptr.19" = type { ptr, %"class.boost::detail::shared_count" }
%"class.QuantLib::DayCounter" = type { %"class.boost::shared_ptr.10" }
%"class.boost::shared_ptr.10" = type { ptr, %"class.boost::detail::shared_count" }
%"class.QuantLib::Calendar" = type { %"class.boost::shared_ptr.11" }
%"class.boost::shared_ptr.11" = type { ptr, %"class.boost::detail::shared_count" }
%"class.boost::shared_ptr.12" = type { ptr, %"class.boost::detail::shared_count" }
%"class.QuantLib::Handle" = type { %"class.boost::shared_ptr.13" }
%"class.boost::shared_ptr.13" = type { ptr, %"class.boost::detail::shared_count" }
%"class.QuantLib::InterestRate" = type { double, %"class.QuantLib::DayCounter", i32, i8, double }

; Function Attrs: mustprogress uwtable
define void @_ZN8QuantLib7Forward12impliedYieldEddNS_4DateENS_11CompoundingERKNS_10DayCounterE(ptr dead_on_unwind noalias writable sret(%"class.QuantLib::InterestRate") align 8 %agg.result, ptr noundef nonnull align 8 dereferenceable(224) %this, double noundef %underlyingSpotValue, double noundef %forwardValue, i64 %settlementDate.coerce, i32 noundef %comp, ptr noundef nonnull align 8 dereferenceable(16) %dayCounter) #2 align 2 {
entry:
  %result.ptr = alloca ptr, align 8
  %settlementDate = alloca %"class.QuantLib::Date", align 8
  %this.addr = alloca ptr, align 8
  %underlyingSpotValue.addr = alloca double, align 8
  %forwardValue.addr = alloca double, align 8
  %comp.addr = alloca i32, align 4
  %dayCounter.addr = alloca ptr, align 8
  %t = alloca double, align 8
  %ref.tmp = alloca %"class.QuantLib::Date", align 8
  %ref.tmp2 = alloca %"class.QuantLib::Date", align 8
  %compoundingFactor = alloca double, align 8
  store ptr %agg.result, ptr %result.ptr, align 8
  %coerce.dive = getelementptr inbounds nuw %"class.QuantLib::Date", ptr %settlementDate, i32 0, i32 0
  store i64 %settlementDate.coerce, ptr %coerce.dive, align 8
  store ptr %this, ptr %this.addr, align 8, !tbaa !3
  store double %underlyingSpotValue, ptr %underlyingSpotValue.addr, align 8, !tbaa !60
  store double %forwardValue, ptr %forwardValue.addr, align 8, !tbaa !60
  store i32 %comp, ptr %comp.addr, align 4, !tbaa !61
  store ptr %dayCounter, ptr %dayCounter.addr, align 8, !tbaa !3
  %this1 = load ptr, ptr %this.addr, align 8
  call void @llvm.lifetime.start.p0(i64 8, ptr %t) #14
  %0 = load ptr, ptr %dayCounter.addr, align 8, !tbaa !3
  %maturityDate_ = getelementptr inbounds nuw %"class.QuantLib::Forward", ptr %this1, i32 0, i32 9
  call void @llvm.lifetime.start.p0(i64 8, ptr %ref.tmp) #14
  call void @_ZN8QuantLib4DateC1Ev(ptr noundef nonnull align 8 dereferenceable(8) %ref.tmp)
  call void @llvm.lifetime.start.p0(i64 8, ptr %ref.tmp2) #14
  call void @_ZN8QuantLib4DateC1Ev(ptr noundef nonnull align 8 dereferenceable(8) %ref.tmp2)
  %call = call noundef double @_ZNK8QuantLib10DayCounter12yearFractionERKNS_4DateES3_S3_S3_(ptr noundef nonnull align 8 dereferenceable(16) %0, ptr noundef nonnull align 8 dereferenceable(8) %settlementDate, ptr noundef nonnull align 8 dereferenceable(8) %maturityDate_, ptr noundef nonnull align 8 dereferenceable(8) %ref.tmp, ptr noundef nonnull align 8 dereferenceable(8) %ref.tmp2)
  call void @llvm.lifetime.end.p0(i64 8, ptr %ref.tmp2) #14
  call void @llvm.lifetime.end.p0(i64 8, ptr %ref.tmp) #14
  store double %call, ptr %t, align 8, !tbaa !60
  call void @llvm.lifetime.start.p0(i64 8, ptr %compoundingFactor) #14
  %1 = load double, ptr %forwardValue.addr, align 8, !tbaa !60
  %2 = load double, ptr %underlyingSpotValue.addr, align 8, !tbaa !60
  %incomeDiscountCurve_ = getelementptr inbounds nuw %"class.QuantLib::Forward", ptr %this1, i32 0, i32 11
  %vtable = load ptr, ptr %this1, align 8, !tbaa !20
  %vfn = getelementptr inbounds ptr, ptr %vtable, i64 11
  %3 = load ptr, ptr %vfn, align 8
  %call3 = call noundef double %3(ptr noundef nonnull align 8 dereferenceable(224) %this1, ptr noundef nonnull align 8 dereferenceable(16) %incomeDiscountCurve_)
  %sub = fsub double %2, %call3
  %div = fdiv double %1, %sub
  store double %div, ptr %compoundingFactor, align 8, !tbaa !60
  %4 = load double, ptr %compoundingFactor, align 8, !tbaa !60
  %5 = load ptr, ptr %dayCounter.addr, align 8, !tbaa !3
  %6 = load i32, ptr %comp.addr, align 4, !tbaa !61
  %7 = load double, ptr %t, align 8, !tbaa !60
  call void @_ZN8QuantLib12InterestRate11impliedRateEdRKNS_10DayCounterENS_11CompoundingENS_9FrequencyEd(ptr dead_on_unwind writable sret(%"class.QuantLib::InterestRate") align 8 %agg.result, double noundef %4, ptr noundef nonnull align 8 dereferenceable(16) %5, i32 noundef %6, i32 noundef 1, double noundef %7)
  call void @llvm.lifetime.end.p0(i64 8, ptr %compoundingFactor) #14
  call void @llvm.lifetime.end.p0(i64 8, ptr %t) #14
  ret void
}