; Function Attrs: mustprogress uwtable
define void @_ZN8QuantLib7Forward12impliedYieldEddNS_4DateENS_11CompoundingERKNS_10DayCounterE(ptr dead_on_unwind noalias writable sret(%"class.QuantLib::InterestRate") align 8 %agg.result, ptr noundef nonnull align 8 dereferenceable(224) %this, double noundef %underlyingSpotValue, double noundef %forwardValue, i64 %settlementDate.coerce, i32 noundef %comp, ptr noundef nonnull align 8 dereferenceable(16) %dayCounter) local_unnamed_addr #9 align 2 {
entry:
  %settlementDate = alloca %"class.QuantLib::Date", align 8
  %ref.tmp = alloca %"class.QuantLib::Date", align 8
  %ref.tmp2 = alloca %"class.QuantLib::Date", align 8
  store i64 %settlementDate.coerce, ptr %settlementDate, align 8
  %maturityDate_ = getelementptr inbounds nuw i8, ptr %this, i64 184
  call void @llvm.lifetime.start.p0(i64 8, ptr nonnull %ref.tmp) #27
  call void @_ZN8QuantLib4DateC1Ev(ptr noundef nonnull align 8 dereferenceable(8) %ref.tmp)
  call void @llvm.lifetime.start.p0(i64 8, ptr nonnull %ref.tmp2) #27
  call void @_ZN8QuantLib4DateC1Ev(ptr noundef nonnull align 8 dereferenceable(8) %ref.tmp2)
  %call = call noundef double @_ZNK8QuantLib10DayCounter12yearFractionERKNS_4DateES3_S3_S3_(ptr noundef nonnull align 8 dereferenceable(16) %dayCounter, ptr noundef nonnull align 8 dereferenceable(8) %settlementDate, ptr noundef nonnull align 8 dereferenceable(8) %maturityDate_, ptr noundef nonnull align 8 dereferenceable(8) %ref.tmp, ptr noundef nonnull align 8 dereferenceable(8) %ref.tmp2)
  call void @llvm.lifetime.end.p0(i64 8, ptr nonnull %ref.tmp2) #27
  call void @llvm.lifetime.end.p0(i64 8, ptr nonnull %ref.tmp) #27
  %incomeDiscountCurve_ = getelementptr inbounds nuw i8, ptr %this, i64 208
  %vtable = load ptr, ptr %this, align 8, !tbaa !33
  %vfn = getelementptr inbounds i8, ptr %vtable, i64 88
  %0 = load ptr, ptr %vfn, align 8
  %call3 = call noundef double %0(ptr noundef nonnull align 8 dereferenceable(224) %this, ptr noundef nonnull align 8 dereferenceable(16) %incomeDiscountCurve_)
  %sub = fsub double %underlyingSpotValue, %call3
  %div = fdiv double %forwardValue, %sub
  call void @_ZN8QuantLib12InterestRate11impliedRateEdRKNS_10DayCounterENS_11CompoundingENS_9FrequencyEd(ptr dead_on_unwind writable sret(%"class.QuantLib::InterestRate") align 8 %agg.result, double noundef %div, ptr noundef nonnull align 8 dereferenceable(16) %dayCounter, i32 noundef %comp, i32 noundef 1, double noundef %call)
  ret void
}